; Function Attrs: mustprogress uwtable
define void @_ZN9TimerList5StartE11ABTimerTypej(ptr noundef nonnull readonly align 8 captures(none) dereferenceable(24) %0, i32 noundef %1, i32 noundef %2) local_unnamed_addr #3 align 2 {
  %4 = icmp sgt i32 %1, 9
  br i1 %4, label %9, label %5

5:                                                ; preds = %3
  %6 = zext i32 %1 to i64
  %7 = load ptr, ptr %0, align 8
  %8 = getelementptr inbounds nuw %class.TimerGroup, ptr %7, i64 %6
  tail call void @_ZN10TimerGroup5StartEj(ptr noundef nonnull align 8 dereferenceable(56) %8, i32 noundef %2)
  br label %9

9:                                                ; preds = %3, %5
  ret void
}